(dp1
S'OriginalConfig'
p2
ccopy_reg
_reconstructor
p3
(cWMCore.Configuration
Configuration
p4
c__builtin__
object
p5
NtRp6
(dp7
S'Site'
p8
g3
(cWMCore.Configuration
ConfigSection
p9
g5
NtRp10
(dp11
S'_internal_skipChecks'
p12
I00
sS'_internal_documentation'
p13
S''
sS'_internal_settings'
p14
c__builtin__
set
p15
((lp16
S'storageSite'
p17
atRp18
sS'_internal_name'
p19
g8
sS'_internal_docstrings'
p20
(dp21
sS'_internal_children'
p22
g15
((ltRp23
sg17
S'T2_CH_CERN'
p24
sS'_internal_parent_ref'
p25
NsbsS'_internal_sections'
p26
(lp27
S'General'
p28
aS'JobType'
p29
aS'Data'
p30
ag8
aS'User'
p31
aS'Debug'
p32
asg28
g3
(g9
g5
NtRp33
(dp34
g12
I00
sg13
S''
sg14
g15
((lp35
S'transferLogs'
p36
aS'requestName'
p37
atRp38
sg19
g28
sg20
(dp39
sg22
g15
((ltRp40
sg37
S'BoostedWRAnalysis_ST_tW_antitop_5f_inclusiveDecays_13TeV-powheg-pythia8_TuneCUETP8M2T4'
p41
sg25
Nsg36
I01
sbsS'_internal_webapps'
p42
(lp43
sg31
g3
(g9
g5
NtRp44
(dp45
g12
I00
sg13
S''
sg14
g15
((ltRp46
sg19
g31
sg20
(dp47
sg22
g15
((ltRp48
sg25
NsbsS'_internal_components'
p49
(lp50
sg32
g3
(g9
g5
NtRp51
(dp52
g12
I00
sg13
S''
sg14
g15
((ltRp53
sg19
g32
sg20
(dp54
sg22
g15
((ltRp55
sg25
Nsbsg30
g3
(g9
g5
NtRp56
(dp57
S'inputDataset'
p58
S'/ST_tW_antitop_5f_inclusiveDecays_13TeV-powheg-pythia8_TuneCUETP8M2T4/RunIISummer16MiniAODv2-PUMoriond17_80X_mcRun2_asymptotic_2016_TrancheIV_v6-v1/MINIAODSIM'
p59
sS'outputDatasetTag'
p60
S'CRAB3_BoostedWRAnalysis'
p61
sg12
I00
sg13
S''
sg14
g15
((lp62
g58
ag60
aS'publication'
p63
aS'splitting'
p64
aS'totalUnits'
p65
atRp66
sg19
g30
sg64
S'Automatic'
p67
sg20
(dp68
sg22
g15
((ltRp69
sg63
I01
sg25
Nsg65
I10000000
sbsg29
g3
(g9
g5
NtRp70
(dp71
g12
I00
sg13
S''
sg14
g15
((lp72
S'psetName'
p73
aS'pluginName'
p74
atRp75
sg19
g29
sg20
(dp76
sg74
S'Analysis'
p77
sg22
g15
((ltRp78
sg73
S'./background_ST_tW_antitop_5f_inclusiveDecays_13TeV-powheg-pythia8_TuneCUETP8M2T4_WR_M-2400_LNu_M-240_cfg.py'
p79
sg25
NsbsbsS'voGroup'
p80
S''
sS'Server'
p81
S'cmsweb.cern.ch'
p82
sS'instance'
p83
S'prod'
p84
sS'RequestName'
p85
V180424_134607:aevans_crab_BoostedWRAnalysis_ST_tW_antitop_5f_inclusiveDecays_13TeV-powheg-pythia8_TuneCUETP8M2T4
p86
sS'voRole'
p87
S'NULL'
p88
sS'Port'
p89
S''
s.