(dp1
S'OriginalConfig'
p2
ccopy_reg
_reconstructor
p3
(cWMCore.Configuration
Configuration
p4
c__builtin__
object
p5
NtRp6
(dp7
S'Site'
p8
g3
(cWMCore.Configuration
ConfigSection
p9
g5
NtRp10
(dp11
S'_internal_skipChecks'
p12
I00
sS'_internal_documentation'
p13
S''
sS'_internal_settings'
p14
c__builtin__
set
p15
((lp16
S'storageSite'
p17
atRp18
sS'_internal_name'
p19
g8
sS'_internal_docstrings'
p20
(dp21
sS'_internal_children'
p22
g15
((ltRp23
sg17
S'T3_US_FNALLPC'
p24
sS'_internal_parent_ref'
p25
NsbsS'_internal_sections'
p26
(lp27
S'General'
p28
aS'JobType'
p29
aS'Data'
p30
ag8
aS'User'
p31
aS'Debug'
p32
asg28
g3
(g9
g5
NtRp33
(dp34
S'workArea'
p35
S'runBackgroundMC/TestCMSSW104X_2019Feb19_170225'
p36
sg12
I00
sg13
S''
sg14
g15
((lp37
g35
aS'transferOutputs'
p38
aS'transferLogs'
p39
aS'requestName'
p40
atRp41
sg19
g28
sg20
(dp42
sg38
I01
sg22
g15
((ltRp43
sg40
S'ST_t-channel_top_4f_inclusiveDecays_TuneCUETP8M2T4_13TeV-powhegV2-madspin'
p44
sg25
Nsg39
I00
sbsS'_internal_webapps'
p45
(lp46
sg31
g3
(g9
g5
NtRp47
(dp48
g12
I00
sg13
S''
sg14
g15
((ltRp49
sg19
g31
sg20
(dp50
sg22
g15
((ltRp51
sg25
NsbsS'_internal_components'
p52
(lp53
sg32
g3
(g9
g5
NtRp54
(dp55
g12
I00
sg13
S''
sg14
g15
((ltRp56
sg19
g32
sg20
(dp57
sg22
g15
((ltRp58
sg25
Nsbsg30
g3
(g9
g5
NtRp59
(dp60
S'inputDataset'
p61
S'/ST_t-channel_top_4f_inclusiveDecays_TuneCUETP8M2T4_13TeV-powhegV2-madspin/RunIISummer16MiniAODv2-PUMoriond17_80X_mcRun2_asymptotic_2016_TrancheIV_v6-v1/MINIAODSIM'
p62
sS'outputDatasetTag'
p63
S'WR'
p64
sg12
I00
sS'splitting'
p65
S'FileBased'
p66
sS'unitsPerJob'
p67
I1
sg13
S''
sg14
g15
((lp68
g61
ag63
aS'totalUnits'
p69
ag67
aS'inputDBS'
p70
ag65
aS'outLFNDirBase'
p71
aS'publication'
p72
atRp73
sg19
g30
sg70
S'global'
p74
sg20
(dp75
sg22
g15
((ltRp76
sg72
I00
sg71
S'/store/user/mkrohn/TestCMSSW104X_2019Feb19_170225/'
p77
sg25
Nsg69
I-1
sbsg29
g3
(g9
g5
NtRp78
(dp79
g12
I00
sS'pyCfgParams'
p80
(lp81
S'reco=94X'
p82
asg13
S''
sg14
g15
((lp83
S'psetName'
p84
aS'pluginName'
p85
aS'inputFiles'
p86
ag80
aS'maxMemoryMB'
p87
atRp88
sg19
g29
sg20
(dp89
sg85
S'Analysis'
p90
sg22
g15
((ltRp91
sg84
S'runBackgroundMC/TestCMSSW104X_2019Feb19_170225/cfgfiles/ST_t-channel_top_4f_inclusiveDecays_TuneCUETP8M2T4_13TeV-powhegV2-madspin_cmssw_cfg.py'
p92
sg25
Nsg86
(lp93
sg87
I7000
sbsbsS'voGroup'
p94
S''
sS'Server'
p95
S'cmsweb.cern.ch'
p96
sS'instance'
p97
S'prod'
p98
sS'RequestName'
p99
V190219_231010:mkrohn_crab_ST_t-channel_top_4f_inclusiveDecays_TuneCUETP8M2T4_13TeV-powhegV2-madspin
p100
sS'voRole'
p101
S'NULL'
p102
sS'Port'
p103
S''
s.