(dp1
S'OriginalConfig'
p2
ccopy_reg
_reconstructor
p3
(cWMCore.Configuration
Configuration
p4
c__builtin__
object
p5
NtRp6
(dp7
S'Site'
p8
g3
(cWMCore.Configuration
ConfigSection
p9
g5
NtRp10
(dp11
S'_internal_skipChecks'
p12
I00
sS'_internal_documentation'
p13
S''
sS'_internal_settings'
p14
c__builtin__
set
p15
((lp16
S'blacklist'
p17
aS'storageSite'
p18
atRp19
sS'_internal_name'
p20
g8
sS'_internal_docstrings'
p21
(dp22
sg17
(lp23
S'T3_US_UCR'
p24
aS'T2_US_Vanderbilt'
p25
aS'T2_EE_Estonia'
p26
aS'T3_US_UMiss'
p27
asS'_internal_children'
p28
g15
((ltRp29
sg18
S'T2_CH_CERN'
p30
sS'_internal_parent_ref'
p31
NsbsS'_internal_sections'
p32
(lp33
S'General'
p34
aS'JobType'
p35
aS'Data'
p36
ag8
aS'User'
p37
aS'Debug'
p38
asg34
g3
(g9
g5
NtRp39
(dp40
S'transferLogs'
p41
I01
sg12
I00
sg13
S''
sg14
g15
((lp42
g41
aS'transferOutputs'
p43
aS'workArea'
p44
aS'requestName'
p45
atRp46
sg20
g34
sg21
(dp47
sg43
I01
sg28
g15
((ltRp48
sg45
S'WR_M-2400_ToLNu_M-800_RECO_MuMuJJ'
p49
sg31
Nsg44
S'crab_projects'
p50
sbsS'_internal_webapps'
p51
(lp52
sg37
g3
(g9
g5
NtRp53
(dp54
g12
I00
sg13
S''
sg14
g15
((ltRp55
sg20
g37
sg21
(dp56
sg28
g15
((ltRp57
sg31
NsbsS'_internal_components'
p58
(lp59
sg38
g3
(g9
g5
NtRp60
(dp61
g12
I00
sg13
S''
sg14
g15
((ltRp62
sg20
g38
sg21
(dp63
sg28
g15
((ltRp64
sg31
Nsbsg36
g3
(g9
g5
NtRp65
(dp66
S'inputDataset'
p67
S'/WRToMuMuJJ_MW-2400_MNu-800_TuneCUETP8M1_13TeV-pythia8/gnegro-RunIIWinter16_80X_GEN-SIM-e2ba59231ce4b9003c4220129f010e56/USER'
p68
sS'outputDatasetTag'
p69
S'RunIIWinter16_80X_mcRun2_asymptotic_2016_miniAODv2_v1_AODSIM'
p70
sg12
I00
sS'splitting'
p71
S'FileBased'
p72
sS'unitsPerJob'
p73
I1
sg13
S''
sg14
g15
((lp74
g67
ag69
aS'publication'
p75
ag73
aS'ignoreLocality'
p76
aS'inputDBS'
p77
ag71
aS'outLFNDirBase'
p78
aS'totalUnits'
p79
atRp80
sg76
I01
sg20
g36
sg77
S'phys03'
p81
sg21
(dp82
sg79
I-1
sg28
g15
((ltRp83
sg78
S'/store/user/aevans/'
p84
sg31
Nsg75
I01
sbsg35
g3
(g9
g5
NtRp85
(dp86
g12
I00
sg13
S''
sg14
g15
((lp87
S'psetName'
p88
aS'pluginName'
p89
atRp90
sg20
g35
sg21
(dp91
sg89
S'Analysis'
p92
sg28
g15
((ltRp93
sg88
S'WR_M-2400_ToLNu_M-800_RECO_MuMuJJ.py'
p94
sg31
NsbsbsS'voGroup'
p95
S''
sS'Server'
p96
S'cmsweb.cern.ch'
p97
sS'instance'
p98
S'prod'
p99
sS'RequestName'
p100
V170512_115200:aevans_crab_WR_M-2400_ToLNu_M-800_RECO_MuMuJJ
p101
sS'voRole'
p102
S'NULL'
p103
sS'Port'
p104
S''
s.